target datalayout = "e-m:e-p270:32:32-p271:32:32-p272:64:64-i64:64-i128:128-f80:128-n8:16:32:64-S128"
target triple = "x86_64-pc-linux-gnu"

; Function Attrs: noinline noreturn nounwind uwtable
define linkonce_odr hidden void @__clang_call_terminate(ptr noundef %0) #4 comdat {
  %2 = call ptr @__cxa_begin_catch(ptr %0) #16
  call void @_ZSt9terminatev() #17
  unreachable
}

; Function Attrs: inlinehint mustprogress nounwind uwtable
define internal noundef zeroext i1 @_ZN5osgeo4proj8internalL6EQUALNEPKcS3_m(ptr noundef %0, ptr noundef %1, i64 noundef %2) #3 {
  %4 = alloca ptr, align 8
  %5 = alloca ptr, align 8
  %6 = alloca i64, align 8
  store ptr %0, ptr %4, align 8, !tbaa !16
  store ptr %1, ptr %5, align 8, !tbaa !16
  store i64 %2, ptr %6, align 8, !tbaa !8
  %7 = load ptr, ptr %4, align 8, !tbaa !16
  %8 = load ptr, ptr %5, align 8, !tbaa !16
  %9 = load i64, ptr %6, align 8, !tbaa !8
  %10 = call i32 @strncasecmp(ptr noundef %7, ptr noundef %8, i64 noundef %9) #18
  %11 = icmp eq i32 %10, 0
  ret i1 %11
}

; Function Attrs: mustprogress nounwind uwtable
define noundef zeroext i1 @_ZN5osgeo4proj8internal14ci_starts_withEPKcS3_(ptr noundef %0, ptr noundef %1) #2 personality ptr @__gxx_personality_v0 {
  %3 = alloca i1, align 1
  %4 = alloca ptr, align 8
  %5 = alloca ptr, align 8
  %6 = alloca i64, align 8
  %7 = alloca i64, align 8
  %8 = alloca i32, align 4
  store ptr %0, ptr %4, align 8, !tbaa !16
  store ptr %1, ptr %5, align 8, !tbaa !16
  call void @llvm.lifetime.start.p0(i64 8, ptr %6) #16
  %9 = load ptr, ptr %4, align 8, !tbaa !16
  %10 = call i64 @strlen(ptr noundef %9) #18
  store i64 %10, ptr %6, align 8, !tbaa !8
  call void @llvm.lifetime.start.p0(i64 8, ptr %7) #16
  %11 = load ptr, ptr %5, align 8, !tbaa !16
  %12 = call i64 @strlen(ptr noundef %11) #18
  store i64 %12, ptr %7, align 8, !tbaa !8
  %13 = load i64, ptr %6, align 8, !tbaa !8
  %14 = load i64, ptr %7, align 8, !tbaa !8
  %15 = icmp ult i64 %13, %14
  br i1 %15, label %16, label %17

16:                                               ; preds = %2
  store i1 false, ptr %3, align 1
  store i32 1, ptr %8, align 4
  br label %23

17:                                               ; preds = %2
  %18 = load ptr, ptr %4, align 8, !tbaa !16
  %19 = load ptr, ptr %5, align 8, !tbaa !16
  %20 = load i64, ptr %7, align 8, !tbaa !8
  %21 = invoke noundef zeroext i1 @_ZN5osgeo4proj8internalL6EQUALNEPKcS3_m(ptr noundef %18, ptr noundef %19, i64 noundef %20)
          to label %22 unwind label %25

22:                                               ; preds = %17
  store i1 %21, ptr %3, align 1
  store i32 1, ptr %8, align 4
  br label %23

23:                                               ; preds = %22, %16
  call void @llvm.lifetime.end.p0(i64 8, ptr %7) #16
  call void @llvm.lifetime.end.p0(i64 8, ptr %6) #16
  %24 = load i1, ptr %3, align 1
  ret i1 %24

25:                                               ; preds = %17
  %26 = landingpad { ptr, i32 }
          catch ptr null
  %27 = extractvalue { ptr, i32 } %26, 0
  call void @__clang_call_terminate(ptr %27) #17
  unreachable
}