; Function Attrs: mustprogress nofree nounwind willreturn memory(read) uwtable
define noundef zeroext i1 @_ZN5osgeo4proj8internal14ci_starts_withEPKcS3_(ptr noundef readonly captures(none) %0, ptr noundef readonly captures(none) %1) local_unnamed_addr #2 personality ptr @__gxx_personality_v0 {
  %3 = tail call i64 @strlen(ptr noundef nonnull dereferenceable(1) %0) #24
  %4 = tail call i64 @strlen(ptr noundef nonnull dereferenceable(1) %1) #24
  %5 = icmp ult i64 %3, %4
  br i1 %5, label %9, label %6

6:                                                ; preds = %2
  %7 = tail call i32 @strncasecmp(ptr noundef nonnull readonly %0, ptr noundef nonnull readonly %1, i64 noundef %4) #24
  %8 = icmp eq i32 %7, 0
  br label %9

9:                                                ; preds = %2, %6
  %.0 = phi i1 [ %8, %6 ], [ false, %2 ]
  ret i1 %.0
}